# SymbolsHelper-Confirmed: 5.15.3 amd64
libQt5NetworkAuth.so.5 libqt5networkauth5 #MINVER#
* Build-Depends-Package: libqt5networkauth5-dev
 Qt_5.0@Qt_5.0 5.11.2
 Qt_5.10@Qt_5.10 5.11.2
 Qt_5.11@Qt_5.11 5.11.2
 Qt_5.12@Qt_5.12 5.12.0
 Qt_5.13@Qt_5.13 5.14.1
 Qt_5.14@Qt_5.14 5.14.1
 Qt_5.15@Qt_5.15 5.15.1
 Qt_5.1@Qt_5.1 5.11.2
 Qt_5.2@Qt_5.2 5.11.2
 Qt_5.3@Qt_5.3 5.11.2
 Qt_5.4@Qt_5.4 5.11.2
 Qt_5.5@Qt_5.5 5.11.2
 Qt_5.6@Qt_5.6 5.11.2
 Qt_5.7@Qt_5.7 5.11.2
 Qt_5.8@Qt_5.8 5.11.2
 Qt_5.9@Qt_5.9 5.11.2
 Qt_5@Qt_5 5.11.2
 Qt_5_PRIVATE_API@Qt_5_PRIVATE_API 5.11.2
 _ZN14QAbstractOAuth11qt_metacallEN11QMetaObject4CallEiPPv@Qt_5 5.11.2
 _ZN14QAbstractOAuth11qt_metacastEPKc@Qt_5 5.11.2
 _ZN14QAbstractOAuth12tokenChangedERK7QString@Qt_5 5.11.2
 _ZN14QAbstractOAuth13requestFailedENS_5ErrorE@Qt_5 5.11.2
 _ZN14QAbstractOAuth13statusChangedENS_6StatusE@Qt_5 5.11.2
 _ZN14QAbstractOAuth14prepareRequestEP15QNetworkRequestRK10QByteArrayS4_@Qt_5 5.14.1
 _ZN14QAbstractOAuth14setContentTypeENS_11ContentTypeE@Qt_5 5.11.2
 _ZN14QAbstractOAuth15setReplyHandlerEP26QAbstractOAuthReplyHandler@Qt_5 5.11.2
 _ZN14QAbstractOAuth16staticMetaObjectE@Qt_5 5.11.2
 _ZN14QAbstractOAuth17replyDataReceivedERK10QByteArray@Qt_5 5.11.2
 _ZN14QAbstractOAuth18contentTypeChangedENS_11ContentTypeE@Qt_5 5.11.2
 _ZN14QAbstractOAuth18extraTokensChangedERK4QMapI7QString8QVariantE@Qt_5 5.11.2
 _ZN14QAbstractOAuth19setAuthorizationUrlERK4QUrl@Qt_5 5.11.2
 _ZN14QAbstractOAuth19setClientIdentifierERK7QString@Qt_5 5.11.2
 _ZN14QAbstractOAuth20authorizeWithBrowserERK4QUrl@Qt_5 5.11.2
 _ZN14QAbstractOAuth20generateRandomStringEh@Qt_5 5.11.2
 _ZN14QAbstractOAuth23authorizationUrlChangedERK4QUrl@Qt_5 5.11.2
 _ZN14QAbstractOAuth23clientIdentifierChangedERK7QString@Qt_5 5.11.2
 _ZN14QAbstractOAuth23setNetworkAccessManagerEP21QNetworkAccessManager@Qt_5 5.11.2
 _ZN14QAbstractOAuth26resourceOwnerAuthorizationERK4QUrlRK4QMapI7QString8QVariantE@Qt_5 5.11.2
 _ZN14QAbstractOAuth27setModifyParametersFunctionERKSt8functionIFvNS_5StageEP4QMapI7QString8QVariantEEE@Qt_5 5.11.2
 _ZN14QAbstractOAuth7grantedEv@Qt_5 5.11.2
 _ZN14QAbstractOAuth8finishedEP13QNetworkReply@Qt_5 5.11.2
 _ZN14QAbstractOAuth8setTokenERK7QString@Qt_5 5.11.2
 _ZN14QAbstractOAuth9setStatusENS_6StatusE@Qt_5 5.11.2
 _ZN14QAbstractOAuthC1ER21QAbstractOAuthPrivateP7QObject@Qt_5_PRIVATE_API 5.11.2
 _ZN14QAbstractOAuthC2ER21QAbstractOAuthPrivateP7QObject@Qt_5_PRIVATE_API 5.11.2
 _ZN14QAbstractOAuthD0Ev@Qt_5 5.11.2
 _ZN14QAbstractOAuthD1Ev@Qt_5 5.11.2
 _ZN14QAbstractOAuthD2Ev@Qt_5 5.11.2
 _ZN15QAbstractOAuth211qt_metacallEN11QMetaObject4CallEiPPv@Qt_5 5.11.2
 _ZN15QAbstractOAuth211qt_metacastEPKc@Qt_5 5.11.2
 _ZN15QAbstractOAuth212scopeChangedERK7QString@Qt_5 5.11.2
 _ZN15QAbstractOAuth212setUserAgentERK7QString@Qt_5 5.11.2
 _ZN15QAbstractOAuth212stateChangedERK7QString@Qt_5 5.11.2
 _ZN15QAbstractOAuth214deleteResourceERK4QUrlRK4QMapI7QString8QVariantE@Qt_5 5.11.2
 _ZN15QAbstractOAuth215setRefreshTokenERK7QString@Qt_5 5.11.2
 _ZN15QAbstractOAuth215setResponseTypeERK7QString@Qt_5 5.11.2
 _ZN15QAbstractOAuth216staticMetaObjectE@Qt_5 5.11.2
 _ZN15QAbstractOAuth216userAgentChangedERK7QString@Qt_5 5.11.2
 _ZN15QAbstractOAuth219expirationAtChangedERK9QDateTime@Qt_5 5.11.2
 _ZN15QAbstractOAuth219refreshTokenChangedERK7QString@Qt_5 5.12.2
 _ZN15QAbstractOAuth219responseTypeChangedERK7QString@Qt_5 5.11.2
 _ZN15QAbstractOAuth222createAuthenticatedUrlERK4QUrlRK4QMapI7QString8QVariantE@Qt_5 5.11.2
 _ZN15QAbstractOAuth228setClientIdentifierSharedKeyERK7QString@Qt_5 5.11.2
 _ZN15QAbstractOAuth229authorizationCallbackReceivedERK4QMapI7QString8QVariantE@Qt_5 5.11.2
 _ZN15QAbstractOAuth232clientIdentifierSharedKeyChangedERK7QString@Qt_5 5.11.2
 _ZN15QAbstractOAuth23getERK4QUrlRK4QMapI7QString8QVariantE@Qt_5 5.11.2
 _ZN15QAbstractOAuth23putERK4QUrlP14QHttpMultiPart@Qt_5 5.11.2
 _ZN15QAbstractOAuth23putERK4QUrlRK10QByteArray@Qt_5 5.11.2
 _ZN15QAbstractOAuth23putERK4QUrlRK4QMapI7QString8QVariantE@Qt_5 5.11.2
 _ZN15QAbstractOAuth24headERK4QUrlRK4QMapI7QString8QVariantE@Qt_5 5.11.2
 _ZN15QAbstractOAuth24postERK4QUrlP14QHttpMultiPart@Qt_5 5.11.2
 _ZN15QAbstractOAuth24postERK4QUrlRK10QByteArray@Qt_5 5.11.2
 _ZN15QAbstractOAuth24postERK4QUrlRK4QMapI7QString8QVariantE@Qt_5 5.11.2
 _ZN15QAbstractOAuth25errorERK7QStringS2_RK4QUrl@Qt_5 5.11.2
 _ZN15QAbstractOAuth28setScopeERK7QString@Qt_5 5.11.2
 _ZN15QAbstractOAuth28setStateERK7QString@Qt_5 5.11.2
 _ZN15QAbstractOAuth2C1EP21QNetworkAccessManagerP7QObject@Qt_5 5.11.2
 _ZN15QAbstractOAuth2C1EP7QObject@Qt_5 5.11.2
 _ZN15QAbstractOAuth2C1ER22QAbstractOAuth2PrivateP7QObject@Qt_5 5.11.2
 _ZN15QAbstractOAuth2C2EP21QNetworkAccessManagerP7QObject@Qt_5 5.11.2
 _ZN15QAbstractOAuth2C2EP7QObject@Qt_5 5.11.2
 _ZN15QAbstractOAuth2C2ER22QAbstractOAuth2PrivateP7QObject@Qt_5 5.11.2
 _ZN15QAbstractOAuth2D0Ev@Qt_5 5.11.2
 _ZN15QAbstractOAuth2D1Ev@Qt_5 5.11.2
 _ZN15QAbstractOAuth2D2Ev@Qt_5 5.11.2
 _ZN16QOAuth1Signature13setParametersERK4QMapI7QString8QVariantE@Qt_5 5.11.2
 _ZN16QOAuth1Signature14addRequestBodyERK9QUrlQuery@Qt_5 5.11.2
 _ZN16QOAuth1Signature14setTokenSecretERK7QString@Qt_5 5.11.2
 _ZN16QOAuth1Signature18setClientSharedKeyERK7QString@Qt_5 5.11.2
 _ZN16QOAuth1Signature20setHttpRequestMethodENS_17HttpRequestMethodE@Qt_5 5.11.2
 _ZN16QOAuth1Signature21setCustomMethodStringERK10QByteArray@Qt_5 5.14.1
 _ZN16QOAuth1Signature4swapERS_@Qt_5 5.11.2
 _ZN16QOAuth1Signature4takeERK7QString@Qt_5 5.11.2
 _ZN16QOAuth1Signature6insertERK7QStringRK8QVariant@Qt_5 5.11.2
 _ZN16QOAuth1Signature6setUrlERK4QUrl@Qt_5 5.11.2
 _ZN16QOAuth1Signature9plainTextERK7QStringS2_@Qt_5 5.11.2
 _ZN16QOAuth1SignatureC1EOS_@Qt_5 5.11.2
 _ZN16QOAuth1SignatureC1ERK4QUrlNS_17HttpRequestMethodERK4QMapI7QString8QVariantE@Qt_5 5.11.2
 _ZN16QOAuth1SignatureC1ERK4QUrlRK7QStringS5_NS_17HttpRequestMethodERK4QMapIS3_8QVariantE@Qt_5 5.11.2
 _ZN16QOAuth1SignatureC1ERKS_@Qt_5 5.11.2
 _ZN16QOAuth1SignatureC2EOS_@Qt_5 5.11.2
 _ZN16QOAuth1SignatureC2ERK4QUrlNS_17HttpRequestMethodERK4QMapI7QString8QVariantE@Qt_5 5.11.2
 _ZN16QOAuth1SignatureC2ERK4QUrlRK7QStringS5_NS_17HttpRequestMethodERK4QMapIS3_8QVariantE@Qt_5 5.11.2
 _ZN16QOAuth1SignatureC2ERKS_@Qt_5 5.11.2
 _ZN16QOAuth1SignatureD1Ev@Qt_5 5.11.2
 _ZN16QOAuth1SignatureD2Ev@Qt_5 5.11.2
 _ZN16QOAuth1SignatureaSEOS_@Qt_5 5.11.2
 _ZN16QOAuth1SignatureaSERKS_@Qt_5 5.11.2
 _ZN21QOAuthOobReplyHandler11qt_metacallEN11QMetaObject4CallEiPPv@Qt_5 5.11.2
 _ZN21QOAuthOobReplyHandler11qt_metacastEPKc@Qt_5 5.11.2
 _ZN21QOAuthOobReplyHandler13parseResponseERK10QByteArray@Qt_5 5.11.2
 _ZN21QOAuthOobReplyHandler16staticMetaObjectE@Qt_5 5.11.2
 _ZN21QOAuthOobReplyHandler20networkReplyFinishedEP13QNetworkReply@Qt_5 5.11.2
 _ZN21QOAuthOobReplyHandlerC1EP7QObject@Qt_5 5.11.2
 _ZN21QOAuthOobReplyHandlerC2EP7QObject@Qt_5 5.11.2
 _ZN26QAbstractOAuthReplyHandler11qt_metacallEN11QMetaObject4CallEiPPv@Qt_5 5.11.2
 _ZN26QAbstractOAuthReplyHandler11qt_metacastEPKc@Qt_5 5.11.2
 _ZN26QAbstractOAuthReplyHandler14tokensReceivedERK4QMapI7QString8QVariantE@Qt_5 5.11.2
 _ZN26QAbstractOAuthReplyHandler16callbackReceivedERK4QMapI7QString8QVariantE@Qt_5 5.11.2
 _ZN26QAbstractOAuthReplyHandler16staticMetaObjectE@Qt_5 5.11.2
 _ZN26QAbstractOAuthReplyHandler17replyDataReceivedERK10QByteArray@Qt_5 5.11.2
 _ZN26QAbstractOAuthReplyHandler20callbackDataReceivedERK10QByteArray@Qt_5 5.11.2
 _ZN26QAbstractOAuthReplyHandlerC1EP7QObject@Qt_5 5.11.2
 _ZN26QAbstractOAuthReplyHandlerC1ER14QObjectPrivateP7QObject@Qt_5 5.11.2
 _ZN26QAbstractOAuthReplyHandlerC2EP7QObject@Qt_5 5.11.2
 _ZN26QAbstractOAuthReplyHandlerC2ER14QObjectPrivateP7QObject@Qt_5 5.11.2
 _ZN26QAbstractOAuthReplyHandlerD0Ev@Qt_5 5.11.2
 _ZN26QAbstractOAuthReplyHandlerD1Ev@Qt_5 5.11.2
 _ZN26QAbstractOAuthReplyHandlerD2Ev@Qt_5 5.11.2
 _ZN28QOAuth2AuthorizationCodeFlow11qt_metacallEN11QMetaObject4CallEiPPv@Qt_5 5.11.2
 _ZN28QOAuth2AuthorizationCodeFlow11qt_metacastEPKc@Qt_5 5.11.2
 _ZN28QOAuth2AuthorizationCodeFlow16staticMetaObjectE@Qt_5 5.11.2
 _ZN28QOAuth2AuthorizationCodeFlow17setAccessTokenUrlERK4QUrl@Qt_5 5.11.2
 _ZN28QOAuth2AuthorizationCodeFlow18refreshAccessTokenEv@Qt_5 5.11.2
 _ZN28QOAuth2AuthorizationCodeFlow18requestAccessTokenERK7QString@Qt_5 5.11.2
 _ZN28QOAuth2AuthorizationCodeFlow20buildAuthenticateUrlERK4QMapI7QString8QVariantE@Qt_5 5.11.2
 _ZN28QOAuth2AuthorizationCodeFlow21accessTokenUrlChangedERK4QUrl@Qt_5 5.11.2
 _ZN28QOAuth2AuthorizationCodeFlow26resourceOwnerAuthorizationERK4QUrlRK4QMapI7QString8QVariantE@Qt_5 5.11.2
 _ZN28QOAuth2AuthorizationCodeFlow5grantEv@Qt_5 5.11.2
 _ZN28QOAuth2AuthorizationCodeFlowC1EP21QNetworkAccessManagerP7QObject@Qt_5 5.11.2
 _ZN28QOAuth2AuthorizationCodeFlowC1EP7QObject@Qt_5 5.11.2
 _ZN28QOAuth2AuthorizationCodeFlowC1ERK4QUrlS2_P21QNetworkAccessManagerP7QObject@Qt_5 5.11.2
 _ZN28QOAuth2AuthorizationCodeFlowC1ERK7QStringP21QNetworkAccessManagerP7QObject@Qt_5 5.11.2
 _ZN28QOAuth2AuthorizationCodeFlowC1ERK7QStringRK4QUrlS5_P21QNetworkAccessManagerP7QObject@Qt_5 5.11.2
 _ZN28QOAuth2AuthorizationCodeFlowC2EP21QNetworkAccessManagerP7QObject@Qt_5 5.11.2
 _ZN28QOAuth2AuthorizationCodeFlowC2EP7QObject@Qt_5 5.11.2
 _ZN28QOAuth2AuthorizationCodeFlowC2ERK4QUrlS2_P21QNetworkAccessManagerP7QObject@Qt_5 5.11.2
 _ZN28QOAuth2AuthorizationCodeFlowC2ERK7QStringP21QNetworkAccessManagerP7QObject@Qt_5 5.11.2
 _ZN28QOAuth2AuthorizationCodeFlowC2ERK7QStringRK4QUrlS5_P21QNetworkAccessManagerP7QObject@Qt_5 5.11.2
 _ZN28QOAuth2AuthorizationCodeFlowD0Ev@Qt_5 5.11.2
 _ZN28QOAuth2AuthorizationCodeFlowD1Ev@Qt_5 5.11.2
 _ZN28QOAuth2AuthorizationCodeFlowD2Ev@Qt_5 5.11.2
 _ZN28QOAuthHttpServerReplyHandler11qt_metacallEN11QMetaObject4CallEiPPv@Qt_5 5.11.2
 _ZN28QOAuthHttpServerReplyHandler11qt_metacastEPKc@Qt_5 5.11.2
 _ZN28QOAuthHttpServerReplyHandler15setCallbackPathERK7QString@Qt_5 5.11.2
 _ZN28QOAuthHttpServerReplyHandler15setCallbackTextERK7QString@Qt_5 5.11.2
 _ZN28QOAuthHttpServerReplyHandler16staticMetaObjectE@Qt_5 5.11.2
 _ZN28QOAuthHttpServerReplyHandler5closeEv@Qt_5 5.11.2
 _ZN28QOAuthHttpServerReplyHandler6listenERK12QHostAddresst@Qt_5 5.11.2
 _ZN28QOAuthHttpServerReplyHandlerC1EP7QObject@Qt_5 5.11.2
 _ZN28QOAuthHttpServerReplyHandlerC1ERK12QHostAddresstP7QObject@Qt_5 5.11.2
 _ZN28QOAuthHttpServerReplyHandlerC1EtP7QObject@Qt_5 5.11.2
 _ZN28QOAuthHttpServerReplyHandlerC2EP7QObject@Qt_5 5.11.2
 _ZN28QOAuthHttpServerReplyHandlerC2ERK12QHostAddresstP7QObject@Qt_5 5.11.2
 _ZN28QOAuthHttpServerReplyHandlerC2EtP7QObject@Qt_5 5.11.2
 _ZN28QOAuthHttpServerReplyHandlerD0Ev@Qt_5 5.11.2
 _ZN28QOAuthHttpServerReplyHandlerD1Ev@Qt_5 5.11.2
 _ZN28QOAuthHttpServerReplyHandlerD2Ev@Qt_5 5.11.2
 _ZN7QOAuth111qt_metacallEN11QMetaObject4CallEiPPv@Qt_5 5.11.2
 _ZN7QOAuth111qt_metacastEPKc@Qt_5 5.11.2
 _ZN7QOAuth114deleteResourceERK4QUrlRK4QMapI7QString8QVariantE@Qt_5 5.11.2
 _ZN7QOAuth114setTokenSecretERK7QString@Qt_5 5.11.2
 _ZN7QOAuth116staticMetaObjectE@Qt_5 5.11.2
 _ZN7QOAuth118setSignatureMethodENS_15SignatureMethodE@Qt_5 5.11.2
 _ZN7QOAuth118tokenSecretChangedERK7QString@Qt_5 5.11.2
 _ZN7QOAuth119setTokenCredentialsERK5QPairI7QStringS1_E@Qt_5 5.11.2
 _ZN7QOAuth119setTokenCredentialsERK7QStringS2_@Qt_5 5.11.2
 _ZN7QOAuth120setClientCredentialsERK5QPairI7QStringS1_E@Qt_5 5.11.2
 _ZN7QOAuth120setClientCredentialsERK7QStringS2_@Qt_5 5.11.2
 _ZN7QOAuth121setClientSharedSecretERK7QString@Qt_5 5.11.2
 _ZN7QOAuth122setTokenCredentialsUrlERK4QUrl@Qt_5 5.11.2
 _ZN7QOAuth122signatureMethodChangedENS_15SignatureMethodE@Qt_5 5.11.2
 _ZN7QOAuth123requestTokenCredentialsEN21QNetworkAccessManager9OperationERK4QUrlRK5QPairI7QStringS6_ERK4QMapIS6_8QVariantE@Qt_5 5.11.2
 _ZN7QOAuth125clientSharedSecretChangedERK7QString@Qt_5 5.11.2
 _ZN7QOAuth125continueGrantWithVerifierERK7QString@Qt_5 5.11.2
 _ZN7QOAuth126setTemporaryCredentialsUrlERK4QUrl@Qt_5 5.11.2
 _ZN7QOAuth126tokenCredentialsUrlChangedERK4QUrl@Qt_5 5.11.2
 _ZN7QOAuth127generateAuthorizationHeaderERK4QMapI7QString8QVariantE@Qt_5 5.11.2
 _ZN7QOAuth127requestTemporaryCredentialsEN21QNetworkAccessManager9OperationERK4QUrlRK4QMapI7QString8QVariantE@Qt_5 5.11.2
 _ZN7QOAuth130temporaryCredentialsUrlChangedERK4QUrl@Qt_5 5.11.2
 _ZN7QOAuth13getERK4QUrlRK4QMapI7QString8QVariantE@Qt_5 5.11.2
 _ZN7QOAuth13putERK4QUrlRK4QMapI7QString8QVariantE@Qt_5 5.11.2
 _ZN7QOAuth14headERK4QUrlRK4QMapI7QString8QVariantE@Qt_5 5.11.2
 _ZN7QOAuth14postERK4QUrlRK4QMapI7QString8QVariantE@Qt_5 5.11.2
 _ZN7QOAuth15grantEv@Qt_5 5.11.2
 _ZN7QOAuth15nonceEv@Qt_5 5.11.2
 _ZN7QOAuth15setupEP15QNetworkRequestRK4QMapI7QString8QVariantEN21QNetworkAccessManager9OperationE@Qt_5 5.11.2
 _ZN7QOAuth15setupEP15QNetworkRequestRK4QMapI7QString8QVariantERK10QByteArray@Qt_5 5.14.1
 _ZN7QOAuth1C1EP21QNetworkAccessManagerP7QObject@Qt_5 5.11.2
 _ZN7QOAuth1C1EP7QObject@Qt_5 5.11.2
 _ZN7QOAuth1C1ERK7QStringS2_P21QNetworkAccessManagerP7QObject@Qt_5 5.11.2
 _ZN7QOAuth1C2EP21QNetworkAccessManagerP7QObject@Qt_5 5.11.2
 _ZN7QOAuth1C2EP7QObject@Qt_5 5.11.2
 _ZN7QOAuth1C2ERK7QStringS2_P21QNetworkAccessManagerP7QObject@Qt_5 5.11.2
 _ZNK14QAbstractOAuth10metaObjectEv@Qt_5 5.11.2
 _ZNK14QAbstractOAuth11contentTypeEv@Qt_5 5.11.2
 _ZNK14QAbstractOAuth11extraTokensEv@Qt_5 5.11.2
 _ZNK14QAbstractOAuth12replyHandlerEv@Qt_5 5.11.2
 _ZNK14QAbstractOAuth16authorizationUrlEv@Qt_5 5.11.2
 _ZNK14QAbstractOAuth16clientIdentifierEv@Qt_5 5.11.2
 _ZNK14QAbstractOAuth20networkAccessManagerEv@Qt_5 5.11.2
 _ZNK14QAbstractOAuth24modifyParametersFunctionEv@Qt_5 5.11.2
 _ZNK14QAbstractOAuth5tokenEv@Qt_5 5.11.2
 _ZNK14QAbstractOAuth6statusEv@Qt_5 5.11.2
 _ZNK14QAbstractOAuth8callbackEv@Qt_5 5.11.2
 _ZNK15QAbstractOAuth210metaObjectEv@Qt_5 5.11.2
 _ZNK15QAbstractOAuth212expirationAtEv@Qt_5 5.11.2
 _ZNK15QAbstractOAuth212refreshTokenEv@Qt_5 5.11.2
 _ZNK15QAbstractOAuth212responseTypeEv@Qt_5 5.11.2
 _ZNK15QAbstractOAuth225clientIdentifierSharedKeyEv@Qt_5 5.11.2
 _ZNK15QAbstractOAuth25scopeEv@Qt_5 5.11.2
 _ZNK15QAbstractOAuth25stateEv@Qt_5 5.11.2
 _ZNK15QAbstractOAuth29userAgentEv@Qt_5 5.11.2
 _ZNK16QOAuth1Signature10parametersEv@Qt_5 5.11.2
 _ZNK16QOAuth1Signature11tokenSecretEv@Qt_5 5.11.2
 _ZNK16QOAuth1Signature15clientSharedKeyEv@Qt_5 5.11.2
 _ZNK16QOAuth1Signature17httpRequestMethodEv@Qt_5 5.11.2
 _ZNK16QOAuth1Signature18customMethodStringEv@Qt_5 5.14.1
 _ZNK16QOAuth1Signature3urlEv@Qt_5 5.11.2
 _ZNK16QOAuth1Signature4keysEv@Qt_5 5.11.2
 _ZNK16QOAuth1Signature5valueERK7QStringRK8QVariant@Qt_5 5.11.2
 _ZNK16QOAuth1Signature7rsaSha1Ev@Qt_5 5.11.2
 _ZNK16QOAuth1Signature8hmacSha1Ev@Qt_5 5.11.2
 _ZNK16QOAuth1Signature9plainTextEv@Qt_5 5.11.2
 _ZNK21QOAuthOobReplyHandler10metaObjectEv@Qt_5 5.11.2
 _ZNK21QOAuthOobReplyHandler8callbackEv@Qt_5 5.11.2
 _ZNK26QAbstractOAuthReplyHandler10metaObjectEv@Qt_5 5.11.2
 _ZNK28QOAuth2AuthorizationCodeFlow10metaObjectEv@Qt_5 5.11.2
 _ZNK28QOAuth2AuthorizationCodeFlow14accessTokenUrlEv@Qt_5 5.11.2
 _ZNK28QOAuthHttpServerReplyHandler10metaObjectEv@Qt_5 5.11.2
 _ZNK28QOAuthHttpServerReplyHandler11isListeningEv@Qt_5 5.11.2
 _ZNK28QOAuthHttpServerReplyHandler12callbackPathEv@Qt_5 5.11.2
 _ZNK28QOAuthHttpServerReplyHandler12callbackTextEv@Qt_5 5.11.2
 _ZNK28QOAuthHttpServerReplyHandler4portEv@Qt_5 5.11.2
 _ZNK28QOAuthHttpServerReplyHandler8callbackEv@Qt_5 5.11.2
 _ZNK7QOAuth110metaObjectEv@Qt_5 5.11.2
 _ZNK7QOAuth111tokenSecretEv@Qt_5 5.11.2
 _ZNK7QOAuth115signatureMethodEv@Qt_5 5.11.2
 _ZNK7QOAuth116tokenCredentialsEv@Qt_5 5.11.2
 _ZNK7QOAuth117clientCredentialsEv@Qt_5 5.11.2
 _ZNK7QOAuth118clientSharedSecretEv@Qt_5 5.11.2
 _ZNK7QOAuth119tokenCredentialsUrlEv@Qt_5 5.11.2
 _ZNK7QOAuth123temporaryCredentialsUrlEv@Qt_5 5.11.2
 (optional=templinst|subst|arch=!armel !armhf !hppa !i386 !m68k !mipsel !powerpc !sh4 !x32)_ZNSt23mersenne_twister_engineI{size_t}L{size_t}32EL{size_t}624EL{size_t}397EL{size_t}31EL{size_t}2567483615EL{size_t}11EL{size_t}4294967295EL{size_t}7EL{size_t}2636928640EL{size_t}15EL{size_t}4022730752EL{size_t}18EL{size_t}1812433253EEclEv@Qt_5 5.11.2
 (optional=templinst)_ZNSt24uniform_int_distributionIiEclISt23mersenne_twister_engineImLm32ELm624ELm397ELm31ELm2567483615ELm11ELm4294967295ELm7ELm2636928640ELm15ELm4022730752ELm18ELm1812433253EEEEiRT_RKNS0_10param_typeE@Qt_5 5.15.3
 _ZTI14QAbstractOAuth@Qt_5 5.11.2
 _ZTI15QAbstractOAuth2@Qt_5 5.11.2
 _ZTI21QOAuthOobReplyHandler@Qt_5 5.11.2
 _ZTI26QAbstractOAuthReplyHandler@Qt_5 5.11.2
 _ZTI28QOAuth2AuthorizationCodeFlow@Qt_5 5.11.2
 _ZTI28QOAuthHttpServerReplyHandler@Qt_5 5.11.2
 _ZTI7QOAuth1@Qt_5 5.11.2
 _ZTS14QAbstractOAuth@Qt_5 5.11.2
 _ZTS15QAbstractOAuth2@Qt_5 5.11.2
 _ZTS21QOAuthOobReplyHandler@Qt_5 5.11.2
 _ZTS26QAbstractOAuthReplyHandler@Qt_5 5.11.2
 _ZTS28QOAuth2AuthorizationCodeFlow@Qt_5 5.11.2
 _ZTS28QOAuthHttpServerReplyHandler@Qt_5 5.11.2
 _ZTS7QOAuth1@Qt_5 5.11.2
 _ZTV14QAbstractOAuth@Qt_5 5.11.2
 _ZTV15QAbstractOAuth2@Qt_5 5.11.2
 _ZTV21QOAuthOobReplyHandler@Qt_5 5.11.2
 _ZTV26QAbstractOAuthReplyHandler@Qt_5 5.11.2
 _ZTV28QOAuth2AuthorizationCodeFlow@Qt_5 5.11.2
 _ZTV28QOAuthHttpServerReplyHandler@Qt_5 5.11.2
 _ZTV7QOAuth1@Qt_5 5.11.2
